; Function Attrs: mustprogress nofree norecurse nosync nounwind willreturn memory(read, inaccessiblemem: none) uwtable
define hidden noundef i32 @_ZN3smt17theory_array_full21get_lambda_equiv_sizeEiPNS_12theory_array8var_dataE(ptr nocapture noundef nonnull readonly align 8 dereferenceable(608) %this, i32 noundef %v, ptr nocapture noundef readonly %d) unnamed_addr #7 align 2 {
entry:
  %m_var_data_full = getelementptr inbounds i8, ptr %this, i64 448
  %0 = load ptr, ptr %m_var_data_full, align 8
  %idxprom.i = zext i32 %v to i64
  %arrayidx.i = getelementptr inbounds ptr, ptr %0, i64 %idxprom.i
  %1 = load ptr, ptr %arrayidx.i, align 8
  %2 = load ptr, ptr %d, align 8
  %cmp.i = icmp eq ptr %2, null
  br i1 %cmp.i, label %_ZNK6vectorIPN3smt5enodeELb0EjE4sizeEv.exit, label %if.end.i

if.end.i:                                         ; preds = %entry
  %arrayidx.i2 = getelementptr inbounds i8, ptr %2, i64 -4
  %3 = load i32, ptr %arrayidx.i2, align 4
  br label %_ZNK6vectorIPN3smt5enodeELb0EjE4sizeEv.exit

_ZNK6vectorIPN3smt5enodeELb0EjE4sizeEv.exit:      ; preds = %entry, %if.end.i
  %retval.0.i = phi i32 [ %3, %if.end.i ], [ 0, %entry ]
  %m_consts = getelementptr inbounds i8, ptr %1, i64 8
  %4 = load ptr, ptr %m_consts, align 8
  %cmp.i3 = icmp eq ptr %4, null
  br i1 %cmp.i3, label %_ZNK6vectorIPN3smt5enodeELb0EjE4sizeEv.exit7, label %if.end.i4

if.end.i4:                                        ; preds = %_ZNK6vectorIPN3smt5enodeELb0EjE4sizeEv.exit
  %arrayidx.i5 = getelementptr inbounds i8, ptr %4, i64 -4
  %5 = load i32, ptr %arrayidx.i5, align 4
  %6 = shl i32 %5, 1
  br label %_ZNK6vectorIPN3smt5enodeELb0EjE4sizeEv.exit7

_ZNK6vectorIPN3smt5enodeELb0EjE4sizeEv.exit7:     ; preds = %_ZNK6vectorIPN3smt5enodeELb0EjE4sizeEv.exit, %if.end.i4
  %retval.0.i6 = phi i32 [ %6, %if.end.i4 ], [ 0, %_ZNK6vectorIPN3smt5enodeELb0EjE4sizeEv.exit ]
  %7 = load ptr, ptr %1, align 8
  %cmp.i8 = icmp eq ptr %7, null
  br i1 %cmp.i8, label %_ZNK6vectorIPN3smt5enodeELb0EjE4sizeEv.exit12, label %if.end.i9

if.end.i9:                                        ; preds = %_ZNK6vectorIPN3smt5enodeELb0EjE4sizeEv.exit7
  %arrayidx.i10 = getelementptr inbounds i8, ptr %7, i64 -4
  %8 = load i32, ptr %arrayidx.i10, align 4
  %9 = shl i32 %8, 1
  br label %_ZNK6vectorIPN3smt5enodeELb0EjE4sizeEv.exit12

_ZNK6vectorIPN3smt5enodeELb0EjE4sizeEv.exit12:    ; preds = %_ZNK6vectorIPN3smt5enodeELb0EjE4sizeEv.exit7, %if.end.i9
  %retval.0.i11 = phi i32 [ %9, %if.end.i9 ], [ 0, %_ZNK6vectorIPN3smt5enodeELb0EjE4sizeEv.exit7 ]
  %add = add i32 %retval.0.i6, %retval.0.i
  %add6 = add i32 %add, %retval.0.i11
  ret i32 %add6
}